LIBRARY p4bridge
    EXPORTS
        CM_AutoResolve
        CM_DetectResolve
        CM_GetBaseFile
        CM_GetBothChunks
        CM_GetConflictChunks
        CM_GetLastClientMergeError
        CM_GetMergeDigest
        CM_GetResultFile
        CM_GetTheirChunks
        CM_GetTheirDigest
        CM_GetTheirFile
        CM_GetYourChunks
        CM_GetYourDigest
        CM_GetYourFile
        CM_IsAcceptable
        CM_Resolve
        CR_AutoResolve
        CR_GetAutoOpt
        CR_GetHelp
        CR_GetHelpOpt
        CR_GetLastError
        CR_GetMergeAction
        CR_GetMergeOpt
        CR_GetMergePrompt
        CR_GetPrompt
        CR_GetSkipOpt
        CR_GetTheirAction
        CR_GetTheirOpt
        CR_GetTheirPrompt
        CR_GetType
        CR_GetTypePrompt
        CR_GetUsageError
        CR_GetYoursAction
        CR_GetYoursOpt
        CR_GetYoursPrompt
        CR_Resolve
        CancelCommand
        Clear
        ClearConnectionError
        Connect
        ConnectionFromPath
        Count
        CreateMapApi
        DeleteMapApi
        Disconnect
        ErrorCode
        Get=?Get@@YAPEBDPEBD@Z 
        GetAllocObj
        GetAllocObjCount
        GetAllocObjName
        GetBinaryResults=?GetBinaryResults@@YAPEBEPEAVP4BridgeServer@@H@Z
        GetBinaryResultsCount=?GetBinaryResultsCount@@YA_KPEAVP4BridgeServer@@H@Z
        GetConnectionError
        GetDataSet=?GetDataSet@@YAPEADPEAVP4BridgeServer@@H@Z
        GetErrorResults=?GetErrorResults@@YAPEAVP4ClientError@@PEAVP4BridgeServer@@H@Z
        GetInfoResults=?GetInfoResults@@YAPEAVP4ClientInfoMsg@@PEAVP4BridgeServer@@H@Z
        GetInfoResultsCount=?GetInfoResultsCount@@YAHPEAVP4BridgeServer@@H@Z
        GetKey
        GetLeft
        GetNextEntry=?GetNextEntry@@YAPEAVKeyValuePair@@PEAVStrDictListIterator@@@Z
        GetNextItem=?GetNextItem@@YAPEAVStrDictList@@PEAVStrDictListIterator@@@Z
        GetRight
        GetStringAllocs
        GetStringReleases
        GetTaggedOutput=?GetTaggedOutput@@YAPEAVStrDictListIterator@@PEAVP4BridgeServer@@H@Z
        GetTaggedOutputCount=?GetTaggedOutputCount@@YAHPEAVP4BridgeServer@@H@Z
        GetTextResults=?GetTextResults@@YAPEBDPEAVP4BridgeServer@@H@Z
        GetTicket=?GetTicket@@YAPEBDPEAD0@Z
        GetTicketFile=?GetTicketFile@@YAPEBDXZ
        GetType
        GetValue=?GetValue@@YAPEBDPEAVKeyValuePair@@@Z
        InfoMessage
        InfoMsgCode
        Insert1
        Insert2
        IsConnected=?IsConnected@@YAHPEAVP4BridgeServer@@@Z
        IsIgnored=?IsIgnored@@YAHPEBD@Z
        IsUnicode
        Join1
        Join2
        Message=?Message@@YAPEBDPEAVP4ClientError@@@Z
        MessageLevel
        Next=?Next@@YAPEAVP4ClientError@@PEAV1@@Z
        NextInfoMsg
        Release=?Release@@YAXPEAX@Z
        ReleaseConnection
        ReleaseString=?ReleaseString@@YAXPEAX@Z
        ReloadEnviro
        ListEnviro=?ListEnviro@@YAXXZ
        RunCommand
        Set=?Set@@YAXPEBD0@Z
        SetBinaryResultsCallbackFn=?SetBinaryResultsCallbackFn@@YAXPEAVP4BridgeServer@@P6AXHPEAXH@Z@Z
        SetCharacterSet
        SetDataSet=?SetDataSet@@YAXPEAVP4BridgeServer@@HPEBD@Z
        SetErrorCallbackFn=?SetErrorCallbackFn@@YAXPEAVP4BridgeServer@@P6AXHHHPEBD@Z@Z
        SetInfoResultsCallbackFn=?SetInfoResultsCallbackFn@@YAXPEAVP4BridgeServer@@P6AXHHHPEBD@Z@Z
        SetLogFunction
        SetParallelTransferCallbackFn=?SetParallelTransferCallbackFn@@YAXPEAVP4BridgeServer@@P6AHPEAHPEBDPEAPEBDH1H@Z@Z
        SetPromptCallbackFn=?SetPromptCallbackFn@@YAXPEAVP4BridgeServer@@P6AXHPEBDPEADHH@Z@Z
        SetProtocol=?SetProtocol@@YAXPEAVP4BridgeServer@@PEBD1@Z
        SetResolveACallbackFn=?SetResolveACallbackFn@@YAXPEAVP4BridgeServer@@P6AHHPEAVP4ClientResolve@@H@Z@Z
        SetResolveCallbackFn=?SetResolveCallbackFn@@YAXPEAVP4BridgeServer@@P6AHHPEAVP4ClientMerge@@@Z@Z
        SetTaggedOutputCallbackFn=?SetTaggedOutputCallbackFn@@YAXPEAVP4BridgeServer@@P6AXHHPEBD1@Z@Z
        SetTextResultsCallbackFn=?SetTextResultsCallbackFn@@YAXPEAVP4BridgeServer@@P6AXHPEBD@Z@Z
        Severity=?Severity@@YA?BHPEAVP4ClientError@@@Z
        SupportsExtSubmit
        Translate
        TrustedConnect
        Update=?Update@@YAXPEBD0@Z
        UrlLaunched
        UseLogin
        get_charset=?get_charset@@YAPEBDPEAVP4BridgeServer@@@Z
        get_client=?get_client@@YAPEBDPEAVP4BridgeServer@@@Z
        get_config=?get_config@@YAPEBDPEAVP4BridgeServer@@@Z
        get_config_cwd
        get_cwd=?get_cwd@@YAPEBDPEAVP4BridgeServer@@@Z
        get_password=?get_password@@YAPEBDPEAVP4BridgeServer@@@Z
        get_port=?get_port@@YAPEBDPEAVP4BridgeServer@@@Z
        get_programName=?get_programName@@YAPEBDPEAVP4BridgeServer@@@Z
        get_programVer=?get_programVer@@YAPEBDPEAVP4BridgeServer@@@Z
        get_ticket
        get_ticketFile=?get_ticketFile@@YAPEBDPEAVP4BridgeServer@@@Z
        get_user=?get_user@@YAPEBDPEAVP4BridgeServer@@@Z
        set_client=?set_client@@YAXPEAVP4BridgeServer@@PEBD@Z
        set_connection=?set_connection@@YAXPEAVP4BridgeServer@@PEBD111@Z
        set_cwd=?set_cwd@@YAXPEAVP4BridgeServer@@PEBD@Z
        set_password=?set_password@@YAXPEAVP4BridgeServer@@PEAD@Z
        set_port=?set_port@@YAXPEAVP4BridgeServer@@PEAD@Z
        set_programName=?set_programName@@YAXPEAVP4BridgeServer@@PEAD@Z
        set_programVer=?set_programVer@@YAXPEAVP4BridgeServer@@PEAD@Z
        set_ticketFile=?set_ticketFile@@YAXPEAVP4BridgeServer@@PEBD@Z
        set_user=?set_user@@YAXPEAVP4BridgeServer@@PEAD@Z
